target datalayout = "e-m:e-p270:32:32-p271:32:32-p272:64:64-i64:64-i128:128-f80:128-n8:16:32:64-S128"
target triple = "x86_64-pc-linux-gnu"

%"struct.duckdb_yyjson::pool_ctx" = type { i64, ptr }
%"struct.duckdb_yyjson::pool_chunk" = type { i64, ptr }

; Function Attrs: mustprogress nounwind uwtable
define internal void @_ZN13duckdb_yyjsonL9pool_freeEPvS0_(ptr noundef %0, ptr noundef %1) #0 {
  %3 = alloca ptr, align 8
  %4 = alloca ptr, align 8
  %5 = alloca ptr, align 8
  %6 = alloca ptr, align 8
  %7 = alloca ptr, align 8
  %8 = alloca ptr, align 8
  store ptr %0, ptr %3, align 8, !tbaa !8
  store ptr %1, ptr %4, align 8, !tbaa !8
  call void @llvm.lifetime.start.p0(i64 8, ptr %5) #15
  %9 = load ptr, ptr %3, align 8, !tbaa !8
  store ptr %9, ptr %5, align 8, !tbaa !12
  call void @llvm.lifetime.start.p0(i64 8, ptr %6) #15
  %10 = load ptr, ptr %4, align 8, !tbaa !8
  %11 = getelementptr inbounds %"struct.duckdb_yyjson::pool_chunk", ptr %10, i64 -1
  store ptr %11, ptr %6, align 8, !tbaa !14
  call void @llvm.lifetime.start.p0(i64 8, ptr %7) #15
  store ptr null, ptr %7, align 8, !tbaa !14
  call void @llvm.lifetime.start.p0(i64 8, ptr %8) #15
  %12 = load ptr, ptr %5, align 8, !tbaa !12
  %13 = getelementptr inbounds nuw %"struct.duckdb_yyjson::pool_ctx", ptr %12, i32 0, i32 1
  %14 = load ptr, ptr %13, align 8, !tbaa !21
  store ptr %14, ptr %8, align 8, !tbaa !14
  br label %15

15:                                               ; preds = %24, %2
  %16 = load ptr, ptr %8, align 8, !tbaa !14
  %17 = icmp ne ptr %16, null
  br i1 %17, label %18, label %22

18:                                               ; preds = %15
  %19 = load ptr, ptr %8, align 8, !tbaa !14
  %20 = load ptr, ptr %6, align 8, !tbaa !14
  %21 = icmp ult ptr %19, %20
  br label %22

22:                                               ; preds = %18, %15
  %23 = phi i1 [ false, %15 ], [ %21, %18 ]
  br i1 %23, label %24, label %29

24:                                               ; preds = %22
  %25 = load ptr, ptr %8, align 8, !tbaa !14
  store ptr %25, ptr %7, align 8, !tbaa !14
  %26 = load ptr, ptr %8, align 8, !tbaa !14
  %27 = getelementptr inbounds nuw %"struct.duckdb_yyjson::pool_chunk", ptr %26, i32 0, i32 1
  %28 = load ptr, ptr %27, align 8, !tbaa !18
  store ptr %28, ptr %8, align 8, !tbaa !14
  br label %15, !llvm.loop !30

29:                                               ; preds = %22
  %30 = load ptr, ptr %7, align 8, !tbaa !14
  %31 = icmp ne ptr %30, null
  br i1 %31, label %32, label %36

32:                                               ; preds = %29
  %33 = load ptr, ptr %6, align 8, !tbaa !14
  %34 = load ptr, ptr %7, align 8, !tbaa !14
  %35 = getelementptr inbounds nuw %"struct.duckdb_yyjson::pool_chunk", ptr %34, i32 0, i32 1
  store ptr %33, ptr %35, align 8, !tbaa !18
  br label %40

36:                                               ; preds = %29
  %37 = load ptr, ptr %6, align 8, !tbaa !14
  %38 = load ptr, ptr %5, align 8, !tbaa !12
  %39 = getelementptr inbounds nuw %"struct.duckdb_yyjson::pool_ctx", ptr %38, i32 0, i32 1
  store ptr %37, ptr %39, align 8, !tbaa !21
  br label %40

40:                                               ; preds = %36, %32
  %41 = load ptr, ptr %8, align 8, !tbaa !14
  %42 = load ptr, ptr %6, align 8, !tbaa !14
  %43 = getelementptr inbounds nuw %"struct.duckdb_yyjson::pool_chunk", ptr %42, i32 0, i32 1
  store ptr %41, ptr %43, align 8, !tbaa !18
  %44 = load ptr, ptr %8, align 8, !tbaa !14
  %45 = icmp ne ptr %44, null
  br i1 %45, label %46, label %67

46:                                               ; preds = %40
  %47 = load ptr, ptr %6, align 8, !tbaa !14
  %48 = load ptr, ptr %6, align 8, !tbaa !14
  %49 = getelementptr inbounds nuw %"struct.duckdb_yyjson::pool_chunk", ptr %48, i32 0, i32 0
  %50 = load i64, ptr %49, align 8, !tbaa !16
  %51 = getelementptr inbounds nuw i8, ptr %47, i64 %50
  %52 = load ptr, ptr %8, align 8, !tbaa !14
  %53 = icmp eq ptr %51, %52
  br i1 %53, label %54, label %67

54:                                               ; preds = %46
  %55 = load ptr, ptr %8, align 8, !tbaa !14
  %56 = getelementptr inbounds nuw %"struct.duckdb_yyjson::pool_chunk", ptr %55, i32 0, i32 0
  %57 = load i64, ptr %56, align 8, !tbaa !16
  %58 = load ptr, ptr %6, align 8, !tbaa !14
  %59 = getelementptr inbounds nuw %"struct.duckdb_yyjson::pool_chunk", ptr %58, i32 0, i32 0
  %60 = load i64, ptr %59, align 8, !tbaa !16
  %61 = add i64 %60, %57
  store i64 %61, ptr %59, align 8, !tbaa !16
  %62 = load ptr, ptr %8, align 8, !tbaa !14
  %63 = getelementptr inbounds nuw %"struct.duckdb_yyjson::pool_chunk", ptr %62, i32 0, i32 1
  %64 = load ptr, ptr %63, align 8, !tbaa !18
  %65 = load ptr, ptr %6, align 8, !tbaa !14
  %66 = getelementptr inbounds nuw %"struct.duckdb_yyjson::pool_chunk", ptr %65, i32 0, i32 1
  store ptr %64, ptr %66, align 8, !tbaa !18
  br label %67

67:                                               ; preds = %54, %46, %40
  %68 = load ptr, ptr %7, align 8, !tbaa !14
  %69 = icmp ne ptr %68, null
  br i1 %69, label %70, label %91

70:                                               ; preds = %67
  %71 = load ptr, ptr %7, align 8, !tbaa !14
  %72 = load ptr, ptr %7, align 8, !tbaa !14
  %73 = getelementptr inbounds nuw %"struct.duckdb_yyjson::pool_chunk", ptr %72, i32 0, i32 0
  %74 = load i64, ptr %73, align 8, !tbaa !16
  %75 = getelementptr inbounds nuw i8, ptr %71, i64 %74
  %76 = load ptr, ptr %6, align 8, !tbaa !14
  %77 = icmp eq ptr %75, %76
  br i1 %77, label %78, label %91

78:                                               ; preds = %70
  %79 = load ptr, ptr %6, align 8, !tbaa !14
  %80 = getelementptr inbounds nuw %"struct.duckdb_yyjson::pool_chunk", ptr %79, i32 0, i32 0
  %81 = load i64, ptr %80, align 8, !tbaa !16
  %82 = load ptr, ptr %7, align 8, !tbaa !14
  %83 = getelementptr inbounds nuw %"struct.duckdb_yyjson::pool_chunk", ptr %82, i32 0, i32 0
  %84 = load i64, ptr %83, align 8, !tbaa !16
  %85 = add i64 %84, %81
  store i64 %85, ptr %83, align 8, !tbaa !16
  %86 = load ptr, ptr %6, align 8, !tbaa !14
  %87 = getelementptr inbounds nuw %"struct.duckdb_yyjson::pool_chunk", ptr %86, i32 0, i32 1
  %88 = load ptr, ptr %87, align 8, !tbaa !18
  %89 = load ptr, ptr %7, align 8, !tbaa !14
  %90 = getelementptr inbounds nuw %"struct.duckdb_yyjson::pool_chunk", ptr %89, i32 0, i32 1
  store ptr %88, ptr %90, align 8, !tbaa !18
  br label %91

91:                                               ; preds = %78, %70, %67
  call void @llvm.lifetime.end.p0(i64 8, ptr %8) #15
  call void @llvm.lifetime.end.p0(i64 8, ptr %7) #15
  call void @llvm.lifetime.end.p0(i64 8, ptr %6) #15
  call void @llvm.lifetime.end.p0(i64 8, ptr %5) #15
  ret void
}